; Function Attrs: inlinehint mustprogress nounwind uwtable
define internal fastcc void @"_ZZL8on_writePvN4absl12lts_202407226StatusEEN3$_0D2Ev"(i64 %.8.val) unnamed_addr #10 align 2 personality ptr @__gxx_personality_v0 {
  %1 = and i64 %.8.val, 1
  %.not.i.i = icmp eq i64 %1, 0
  br i1 %.not.i.i, label %2, label %_ZN4absl12lts_202407226StatusD2Ev.exit

2:                                                ; preds = %0
  %3 = inttoptr i64 %.8.val to ptr
  invoke void @_ZNK4absl12lts_2024072215status_internal9StatusRep5UnrefEv(ptr noundef nonnull align 8 dereferenceable(48) %3)
          to label %_ZN4absl12lts_202407226StatusD2Ev.exit unwind label %4

4:                                                ; preds = %2
  %5 = landingpad { ptr, i32 }
          catch ptr null
  %6 = extractvalue { ptr, i32 } %5, 0
  tail call void @__clang_call_terminate(ptr %6) #32
  unreachable

_ZN4absl12lts_202407226StatusD2Ev.exit:           ; preds = %0, %2
  ret void
}